; Function Attrs: nofree nosync nounwind memory(readwrite, inaccessiblemem: none) uwtable
define range(i32 -2147483647, -2147483648) i32 @Gia_MuxRef(ptr noundef %0, i32 noundef %1) local_unnamed_addr #5 {
  %3 = getelementptr i8, ptr %0, i64 32
  %.val = load ptr, ptr %3, align 8
  %4 = sext i32 %1 to i64
  %5 = getelementptr inbounds %struct.Gia_Obj_t_, ptr %.val, i64 %4
  %6 = ptrtoint ptr %5 to i64
  %.val3.i = load i64, ptr %5, align 4
  %7 = trunc i64 %.val3.i to i32
  %8 = and i32 %7, 536870911
  %9 = sub nsw i32 %1, %8
  %10 = tail call i32 @Gia_MuxRef_rec(ptr noundef %0, i32 noundef %9)
  %.val11 = load ptr, ptr %3, align 8
  %11 = ptrtoint ptr %.val11 to i64
  %12 = sub i64 %6, %11
  %13 = sdiv exact i64 %12, 12
  %14 = trunc i64 %13 to i32
  %.val3.i12 = load i64, ptr %5, align 4
  %15 = lshr i64 %.val3.i12, 32
  %16 = trunc nuw i64 %15 to i32
  %17 = and i32 %16, 536870911
  %18 = sub nsw i32 %14, %17
  %19 = tail call i32 @Gia_MuxRef_rec(ptr noundef %0, i32 noundef %18)
  %20 = getelementptr inbounds nuw i8, ptr %0, i64 40
  %21 = load ptr, ptr %20, align 8
  %.not.i = icmp eq ptr %21, null
  br i1 %.not.i, label %Gia_ObjFaninId2p.exit, label %22

22:                                               ; preds = %2
  %.val8.i = load ptr, ptr %3, align 8
  %23 = ptrtoint ptr %.val8.i to i64
  %24 = sub i64 %6, %23
  %25 = sdiv exact i64 %24, 12
  %sext.i = shl i64 %25, 32
  %26 = ashr exact i64 %sext.i, 30
  %27 = getelementptr inbounds i8, ptr %21, i64 %26
  %28 = load i32, ptr %27, align 4
  %.not7.i = icmp eq i32 %28, 0
  %29 = ashr i32 %28, 1
  %spec.select.i = select i1 %.not7.i, i32 -1, i32 %29
  br label %Gia_ObjFaninId2p.exit

Gia_ObjFaninId2p.exit:                            ; preds = %2, %22
  %30 = phi i32 [ -1, %2 ], [ %spec.select.i, %22 ]
  %31 = tail call i32 @Gia_MuxRef_rec(ptr noundef nonnull %0, i32 noundef %30)
  %32 = add i32 %10, 1
  %33 = add i32 %32, %19
  %34 = add i32 %33, %31
  ret i32 %34
}